target datalayout = "e-m:e-p270:32:32-p271:32:32-p272:64:64-i64:64-i128:128-f80:128-n8:16:32:64-S128"
target triple = "x86_64-pc-linux-gnu"

%struct.strvec = type { ptr, i64, i64 }
%struct.strbuf = type { i64, i64, ptr }
%struct.diff_options = type { ptr, ptr, i32, i32, ptr, i32, ptr, i64, i64, ptr, ptr, ptr, ptr, %struct.diff_flags, i32, i32, i32, i32, i32, i32, i32, i32, i32, i32, i32, i32, i32, i32, i32, i32, i32, i32, i32, i32, i32, i32, ptr, i32, ptr, i32, i32, ptr, i64, i64, i32, i32, i32, i32, ptr, i32, i32, ptr, i32, i32, ptr, ptr, i32, [3 x i8], %struct.pathspec, ptr, ptr, ptr, ptr, ptr, ptr, ptr, ptr, i32, ptr, i32, i32, ptr, ptr, i32 }
%struct.diff_flags = type { i32, i32, i32, i32, i32, i32, i32, i32, i32, i32, i32, i32, i32, i32, i32, i32, i32, i32, i32, i32, i32, i32, i32, i32, i32, i32, i32, i32, i32, i32, i32, i32, i32, i32, i32 }
%struct.pathspec = type { i32, i8, i32, i32, ptr }
%struct.git_graph = type { ptr, ptr, i32, i32, i32, i32, i32, i32, i32, i32, i32, i32, i32, i32, i32, i32, ptr, ptr, ptr, ptr, i16, %struct.strbuf }
%struct.rev_info = type { ptr, %struct.object_array, ptr, %struct.object_array, %struct.rev_cmdline_info, %struct.list_objects_filter_options, %struct.ref_exclusions, ptr, ptr, ptr, %struct.pathspec, i32, i32, i32, i32, i64, i32, i32, %struct.date_mode, i32, i32, i32, i32, ptr, i32, i32, ptr, ptr, i32, ptr, ptr, %struct.ident_split, ptr, i32, ptr, ptr, ptr, i32, i32, i32, ptr, %struct.grep_opt, ptr, i32, i32, i64, i64, i64, i32, i32, ptr, ptr, ptr, %struct.diff_options, %struct.diff_options, ptr, %struct.decoration, %struct.decoration, %struct.decoration, %struct.display_notes_opt, ptr, ptr, ptr, ptr, ptr, i32, ptr, i32, i32, i32, %struct.decoration, ptr, ptr, ptr, ptr, ptr, ptr, ptr, i32, ptr, i32, ptr, %struct.oidset }
%struct.object_array = type { i32, i32, ptr }
%struct.rev_cmdline_info = type { i32, i32, ptr }
%struct.list_objects_filter_options = type { %struct.strbuf, i32, i8, ptr, i64, i64, i32, i64, i64, ptr }
%struct.ref_exclusions = type { %struct.string_list, %struct.strvec, i8 }
%struct.string_list = type { ptr, i64, i64, i8, ptr }
%struct.date_mode = type { i32, i32, ptr }
%struct.ident_split = type { ptr, ptr, ptr, ptr, ptr, ptr, ptr, ptr }
%struct.grep_opt = type { ptr, ptr, ptr, ptr, ptr, ptr, i32, i32, i32, i32, i32, i32, i32, i32, i32, i32, i32, i32, i32, i32, i32, i32, i32, i32, i32, i32, i32, i32, i32, i32, i32, i32, [9 x [75 x i8]], i32, i32, i32, i32, i32, i32, i32, ptr, ptr, ptr }
%struct.display_notes_opt = type { i32, %struct.string_list }
%struct.decoration = type { ptr, i32, i32, ptr }
%struct.oidset = type { %struct.kh_oid_set }
%struct.kh_oid_set = type { i32, i32, i32, i32, ptr, ptr, ptr }

@default_diffopt = internal global ptr null, align 8
@__const.graph_show_oneline.msgbuf = private unnamed_addr constant %struct.strbuf { i64 0, i64 0, ptr @strbuf_slopbuf }, align 8

; Function Attrs: nounwind uwtable
define internal void @graph_show_line_prefix(ptr noundef %0) #0 {
  %2 = alloca ptr, align 8
  store ptr %0, ptr %2, align 8, !tbaa !11
  %3 = load ptr, ptr %2, align 8, !tbaa !11
  %4 = icmp ne ptr %3, null
  br i1 %4, label %5, label %10

5:                                                ; preds = %1
  %6 = load ptr, ptr %2, align 8, !tbaa !11
  %7 = getelementptr inbounds nuw %struct.diff_options, ptr %6, i32 0, i32 12
  %8 = load ptr, ptr %7, align 8, !tbaa !30
  %9 = icmp ne ptr %8, null
  br i1 %9, label %11, label %10

10:                                               ; preds = %5, %1
  br label %19

11:                                               ; preds = %5
  %12 = load ptr, ptr %2, align 8, !tbaa !11
  %13 = getelementptr inbounds nuw %struct.diff_options, ptr %12, i32 0, i32 12
  %14 = load ptr, ptr %13, align 8, !tbaa !30
  %15 = load ptr, ptr %2, align 8, !tbaa !11
  %16 = getelementptr inbounds nuw %struct.diff_options, ptr %15, i32 0, i32 55
  %17 = load ptr, ptr %16, align 8, !tbaa !146
  %18 = call i32 @fputs(ptr noundef %14, ptr noundef %17)
  br label %19

19:                                               ; preds = %11, %10
  ret void
}

; Function Attrs: nounwind uwtable
define dso_local void @graph_show_oneline(ptr noundef %0) #0 {
  %2 = alloca ptr, align 8
  %3 = alloca %struct.strbuf, align 8
  %4 = alloca i32, align 4
  store ptr %0, ptr %2, align 8, !tbaa !28
  call void @llvm.lifetime.start.p0(i64 24, ptr %3) #8
  call void @llvm.memcpy.p0.p0.i64(ptr align 8 %3, ptr align 8 @__const.graph_show_oneline.msgbuf, i64 24, i1 false)
  %5 = load ptr, ptr @default_diffopt, align 8, !tbaa !11
  call void @graph_show_line_prefix(ptr noundef %5)
  %6 = load ptr, ptr %2, align 8, !tbaa !28
  %7 = icmp ne ptr %6, null
  br i1 %7, label %9, label %8

8:                                                ; preds = %1
  store i32 1, ptr %4, align 4
  br label %23

9:                                                ; preds = %1
  %10 = load ptr, ptr %2, align 8, !tbaa !28
  %11 = call i32 @graph_next_line(ptr noundef %10, ptr noundef %3)
  %12 = getelementptr inbounds nuw %struct.strbuf, ptr %3, i32 0, i32 2
  %13 = load ptr, ptr %12, align 8, !tbaa !142
  %14 = getelementptr inbounds nuw %struct.strbuf, ptr %3, i32 0, i32 1
  %15 = load i64, ptr %14, align 8, !tbaa !143
  %16 = load ptr, ptr %2, align 8, !tbaa !28
  %17 = getelementptr inbounds nuw %struct.git_graph, ptr %16, i32 0, i32 1
  %18 = load ptr, ptr %17, align 8, !tbaa !78
  %19 = getelementptr inbounds nuw %struct.rev_info, ptr %18, i32 0, i32 53
  %20 = getelementptr inbounds nuw %struct.diff_options, ptr %19, i32 0, i32 55
  %21 = load ptr, ptr %20, align 8, !tbaa !144
  %22 = call i64 @fwrite(ptr noundef %13, i64 noundef 1, i64 noundef %15, ptr noundef %21)
  call void @strbuf_release(ptr noundef %3)
  store i32 0, ptr %4, align 4
  br label %23

23:                                               ; preds = %9, %8
  call void @llvm.lifetime.end.p0(i64 24, ptr %3) #8
  %24 = load i32, ptr %4, align 4
  switch i32 %24, label %26 [
    i32 0, label %25
    i32 1, label %25
  ]

25:                                               ; preds = %23, %23
  ret void

26:                                               ; preds = %23
  unreachable
}

; Function Attrs: nounwind uwtable
define dso_local i32 @graph_is_commit_finished(ptr noundef %0) #0 {
  %2 = alloca ptr, align 8
  store ptr %0, ptr %2, align 8, !tbaa !28
  %3 = load ptr, ptr %2, align 8, !tbaa !28
  %4 = getelementptr inbounds nuw %struct.git_graph, ptr %3, i32 0, i32 5
  %5 = load i32, ptr %4, align 4, !tbaa !81
  %6 = icmp eq i32 %5, 0
  %7 = zext i1 %6 to i32
  ret i32 %7
}

; Function Attrs: nounwind uwtable
define internal void @graph_show_strbuf(ptr noundef %0, ptr noundef %1, ptr noundef %2) #0 {
  %4 = alloca ptr, align 8
  %5 = alloca ptr, align 8
  %6 = alloca ptr, align 8
  %7 = alloca ptr, align 8
  %8 = alloca i64, align 8
  %9 = alloca ptr, align 8
  store ptr %0, ptr %4, align 8, !tbaa !28
  store ptr %1, ptr %5, align 8, !tbaa !149
  store ptr %2, ptr %6, align 8, !tbaa !123
  call void @llvm.lifetime.start.p0(i64 8, ptr %7) #8
  %10 = load ptr, ptr %6, align 8, !tbaa !123
  %11 = getelementptr inbounds nuw %struct.strbuf, ptr %10, i32 0, i32 2
  %12 = load ptr, ptr %11, align 8, !tbaa !142
  store ptr %12, ptr %7, align 8, !tbaa !74
  br label %13

13:                                               ; preds = %55, %3
  %14 = load ptr, ptr %7, align 8, !tbaa !74
  %15 = icmp ne ptr %14, null
  br i1 %15, label %16, label %57

16:                                               ; preds = %13
  call void @llvm.lifetime.start.p0(i64 8, ptr %8) #8
  call void @llvm.lifetime.start.p0(i64 8, ptr %9) #8
  %17 = load ptr, ptr %7, align 8, !tbaa !74
  %18 = call ptr @strchr(ptr noundef %17, i32 noundef 10) #9
  store ptr %18, ptr %9, align 8, !tbaa !74
  %19 = load ptr, ptr %9, align 8, !tbaa !74
  %20 = icmp ne ptr %19, null
  br i1 %20, label %21, label %29

21:                                               ; preds = %16
  %22 = load ptr, ptr %9, align 8, !tbaa !74
  %23 = getelementptr inbounds nuw i8, ptr %22, i32 1
  store ptr %23, ptr %9, align 8, !tbaa !74
  %24 = load ptr, ptr %9, align 8, !tbaa !74
  %25 = load ptr, ptr %7, align 8, !tbaa !74
  %26 = ptrtoint ptr %24 to i64
  %27 = ptrtoint ptr %25 to i64
  %28 = sub i64 %26, %27
  store i64 %28, ptr %8, align 8, !tbaa !103
  br label %41

29:                                               ; preds = %16
  %30 = load ptr, ptr %6, align 8, !tbaa !123
  %31 = getelementptr inbounds nuw %struct.strbuf, ptr %30, i32 0, i32 2
  %32 = load ptr, ptr %31, align 8, !tbaa !142
  %33 = load ptr, ptr %6, align 8, !tbaa !123
  %34 = getelementptr inbounds nuw %struct.strbuf, ptr %33, i32 0, i32 1
  %35 = load i64, ptr %34, align 8, !tbaa !143
  %36 = getelementptr inbounds nuw i8, ptr %32, i64 %35
  %37 = load ptr, ptr %7, align 8, !tbaa !74
  %38 = ptrtoint ptr %36 to i64
  %39 = ptrtoint ptr %37 to i64
  %40 = sub i64 %38, %39
  store i64 %40, ptr %8, align 8, !tbaa !103
  br label %41

41:                                               ; preds = %29, %21
  %42 = load ptr, ptr %7, align 8, !tbaa !74
  %43 = load i64, ptr %8, align 8, !tbaa !103
  %44 = load ptr, ptr %5, align 8, !tbaa !149
  %45 = call i64 @fwrite(ptr noundef %42, i64 noundef 1, i64 noundef %43, ptr noundef %44)
  %46 = load ptr, ptr %9, align 8, !tbaa !74
  %47 = icmp ne ptr %46, null
  br i1 %47, label %48, label %55

48:                                               ; preds = %41
  %49 = load ptr, ptr %9, align 8, !tbaa !74
  %50 = load i8, ptr %49, align 1, !tbaa !134
  %51 = sext i8 %50 to i32
  %52 = icmp ne i32 %51, 0
  br i1 %52, label %53, label %55

53:                                               ; preds = %48
  %54 = load ptr, ptr %4, align 8, !tbaa !28
  call void @graph_show_oneline(ptr noundef %54)
  br label %55

55:                                               ; preds = %53, %48, %41
  %56 = load ptr, ptr %9, align 8, !tbaa !74
  store ptr %56, ptr %7, align 8, !tbaa !74
  call void @llvm.lifetime.end.p0(i64 8, ptr %9) #8
  call void @llvm.lifetime.end.p0(i64 8, ptr %8) #8
  br label %13, !llvm.loop !150

57:                                               ; preds = %13
  call void @llvm.lifetime.end.p0(i64 8, ptr %7) #8
  ret void
}

; Function Attrs: nounwind uwtable
define dso_local void @graph_show_commit_msg(ptr noundef %0, ptr noundef %1, ptr noundef %2) #0 {
  %4 = alloca ptr, align 8
  %5 = alloca ptr, align 8
  %6 = alloca ptr, align 8
  %7 = alloca i32, align 4
  %8 = alloca i32, align 4
  store ptr %0, ptr %4, align 8, !tbaa !28
  store ptr %1, ptr %5, align 8, !tbaa !149
  store ptr %2, ptr %6, align 8, !tbaa !123
  call void @llvm.lifetime.start.p0(i64 4, ptr %7) #8
  %9 = load ptr, ptr %4, align 8, !tbaa !28
  %10 = load ptr, ptr %5, align 8, !tbaa !149
  %11 = load ptr, ptr %6, align 8, !tbaa !123
  call void @graph_show_strbuf(ptr noundef %9, ptr noundef %10, ptr noundef %11)
  %12 = load ptr, ptr %4, align 8, !tbaa !28
  %13 = icmp ne ptr %12, null
  br i1 %13, label %15, label %14

14:                                               ; preds = %3
  store i32 1, ptr %8, align 4
  br label %54

15:                                               ; preds = %3
  %16 = load ptr, ptr %6, align 8, !tbaa !123
  %17 = getelementptr inbounds nuw %struct.strbuf, ptr %16, i32 0, i32 1
  %18 = load i64, ptr %17, align 8, !tbaa !143
  %19 = icmp ne i64 %18, 0
  br i1 %19, label %20, label %32

20:                                               ; preds = %15
  %21 = load ptr, ptr %6, align 8, !tbaa !123
  %22 = getelementptr inbounds nuw %struct.strbuf, ptr %21, i32 0, i32 2
  %23 = load ptr, ptr %22, align 8, !tbaa !142
  %24 = load ptr, ptr %6, align 8, !tbaa !123
  %25 = getelementptr inbounds nuw %struct.strbuf, ptr %24, i32 0, i32 1
  %26 = load i64, ptr %25, align 8, !tbaa !143
  %27 = sub i64 %26, 1
  %28 = getelementptr inbounds nuw i8, ptr %23, i64 %27
  %29 = load i8, ptr %28, align 1, !tbaa !134
  %30 = sext i8 %29 to i32
  %31 = icmp eq i32 %30, 10
  br label %32

32:                                               ; preds = %20, %15
  %33 = phi i1 [ false, %15 ], [ %31, %20 ]
  %34 = zext i1 %33 to i32
  store i32 %34, ptr %7, align 4, !tbaa !73
  %35 = load ptr, ptr %4, align 8, !tbaa !28
  %36 = call i32 @graph_is_commit_finished(ptr noundef %35)
  %37 = icmp ne i32 %36, 0
  br i1 %37, label %53, label %38

38:                                               ; preds = %32
  %39 = load i32, ptr %7, align 4, !tbaa !73
  %40 = icmp ne i32 %39, 0
  br i1 %40, label %44, label %41

41:                                               ; preds = %38
  %42 = load ptr, ptr %5, align 8, !tbaa !149
  %43 = call i32 @putc(i32 noundef 10, ptr noundef %42)
  br label %44

44:                                               ; preds = %41, %38
  %45 = load ptr, ptr %4, align 8, !tbaa !28
  %46 = call i32 @graph_show_remainder(ptr noundef %45)
  %47 = load i32, ptr %7, align 4, !tbaa !73
  %48 = icmp ne i32 %47, 0
  br i1 %48, label %49, label %52

49:                                               ; preds = %44
  %50 = load ptr, ptr %5, align 8, !tbaa !149
  %51 = call i32 @putc(i32 noundef 10, ptr noundef %50)
  br label %52

52:                                               ; preds = %49, %44
  br label %53

53:                                               ; preds = %52, %32
  store i32 0, ptr %8, align 4
  br label %54

54:                                               ; preds = %53, %14
  call void @llvm.lifetime.end.p0(i64 4, ptr %7) #8
  %55 = load i32, ptr %8, align 4
  switch i32 %55, label %57 [
    i32 0, label %56
    i32 1, label %56
  ]

56:                                               ; preds = %54, %54
  ret void

57:                                               ; preds = %54
  unreachable
}