; Function Attrs: nounwind uwtable
define dso_local void @graph_show_commit_msg(ptr noundef %0, ptr noundef captures(none) %1, ptr noundef readonly captures(none) %2) local_unnamed_addr #2 {
  %4 = alloca %struct.strbuf, align 8
  %5 = getelementptr inbounds nuw i8, ptr %2, i64 16
  %6 = load ptr, ptr %5, align 8, !tbaa !29
  %.not26.i = icmp eq ptr %6, null
  br i1 %.not26.i, label %graph_show_strbuf.exit, label %.lr.ph.i

.lr.ph.i:                                         ; preds = %3
  %.not.i.i = icmp eq ptr %0, null
  %7 = getelementptr inbounds nuw i8, ptr %4, i64 16
  %8 = getelementptr inbounds nuw i8, ptr %4, i64 8
  %9 = getelementptr inbounds nuw i8, ptr %0, i64 8
  %10 = getelementptr inbounds nuw i8, ptr %2, i64 8
  br i1 %.not.i.i, label %.lr.ph.split.us.i.preheader, label %.lr.ph.split.i.preheader

.lr.ph.split.i.preheader:                         ; preds = %.lr.ph.i
  %11 = tail call ptr @strchr(ptr noundef nonnull dereferenceable(1) %6, i32 noundef 10) #14
  %.not19.i20 = icmp eq ptr %11, null
  br i1 %.not19.i20, label %._crit_edge.sink.split.i, label %.lr.ph

.lr.ph.split.us.i.preheader:                      ; preds = %.lr.ph.i
  %12 = tail call ptr @strchr(ptr noundef nonnull dereferenceable(1) %6, i32 noundef 10) #14
  %.not19.us.i22 = icmp eq ptr %12, null
  br i1 %.not19.us.i22, label %._crit_edge.sink.split.i, label %.lr.ph24

.lr.ph24:                                         ; preds = %.lr.ph.split.us.i.preheader, %.lr.ph.split.us.i
  %13 = phi ptr [ %29, %.lr.ph.split.us.i ], [ %12, %.lr.ph.split.us.i.preheader ]
  %.01727.us.i23 = phi ptr [ %14, %.lr.ph.split.us.i ], [ %6, %.lr.ph.split.us.i.preheader ]
  %14 = getelementptr inbounds nuw i8, ptr %13, i64 1
  %15 = ptrtoint ptr %14 to i64
  %16 = ptrtoint ptr %.01727.us.i23 to i64
  %17 = sub i64 %15, %16
  %18 = tail call i64 @fwrite(ptr noundef nonnull %.01727.us.i23, i64 noundef 1, i64 noundef %17, ptr noundef %1)
  %19 = load i8, ptr %14, align 1, !tbaa !30
  %.not21.us.i = icmp eq i8 %19, 0
  br i1 %.not21.us.i, label %.lr.ph.split.us.i, label %20

20:                                               ; preds = %.lr.ph24
  call void @llvm.lifetime.start.p0(i64 24, ptr nonnull %4) #15
  %21 = load ptr, ptr @default_diffopt, align 8, !tbaa !11
  %.not.i.i.us.i = icmp eq ptr %21, null
  br i1 %.not.i.i.us.i, label %graph_show_line_prefix.exit.i.us.i, label %22

22:                                               ; preds = %20
  %23 = getelementptr inbounds nuw i8, ptr %21, i64 88
  %24 = load ptr, ptr %23, align 8, !tbaa !31
  %.not5.i.i.us.i = icmp eq ptr %24, null
  br i1 %.not5.i.i.us.i, label %graph_show_line_prefix.exit.i.us.i, label %25

25:                                               ; preds = %22
  %26 = getelementptr inbounds nuw i8, ptr %21, i64 440
  %27 = load ptr, ptr %26, align 8, !tbaa !140
  %28 = tail call i32 @fputs(ptr noundef nonnull %24, ptr noundef %27)
  br label %graph_show_line_prefix.exit.i.us.i

graph_show_line_prefix.exit.i.us.i:               ; preds = %25, %22, %20
  call void @llvm.lifetime.end.p0(i64 24, ptr nonnull %4) #15
  br label %.lr.ph.split.us.i

.lr.ph.split.us.i:                                ; preds = %graph_show_line_prefix.exit.i.us.i, %.lr.ph24
  %29 = tail call ptr @strchr(ptr noundef nonnull dereferenceable(1) %14, i32 noundef 10) #14
  %.not19.us.i = icmp eq ptr %29, null
  br i1 %.not19.us.i, label %._crit_edge.sink.split.i, label %.lr.ph24, !llvm.loop !144

.lr.ph:                                           ; preds = %.lr.ph.split.i.preheader, %.lr.ph.split.i
  %30 = phi ptr [ %53, %.lr.ph.split.i ], [ %11, %.lr.ph.split.i.preheader ]
  %.01727.i21 = phi ptr [ %31, %.lr.ph.split.i ], [ %6, %.lr.ph.split.i.preheader ]
  %31 = getelementptr inbounds nuw i8, ptr %30, i64 1
  %32 = ptrtoint ptr %31 to i64
  %33 = ptrtoint ptr %.01727.i21 to i64
  %34 = sub i64 %32, %33
  %35 = call i64 @fwrite(ptr noundef nonnull %.01727.i21, i64 noundef 1, i64 noundef %34, ptr noundef %1)
  %36 = load i8, ptr %31, align 1, !tbaa !30
  %.not21.i = icmp eq i8 %36, 0
  br i1 %.not21.i, label %.lr.ph.split.i, label %37

37:                                               ; preds = %.lr.ph
  call void @llvm.lifetime.start.p0(i64 24, ptr nonnull %4) #15
  call void @llvm.memcpy.p0.p0.i64(ptr noundef nonnull align 8 dereferenceable(24) %4, ptr noundef nonnull align 8 dereferenceable(24) @__const.graph_show_remainder.msgbuf, i64 24, i1 false)
  %38 = load ptr, ptr @default_diffopt, align 8, !tbaa !11
  %.not.i.i.i = icmp eq ptr %38, null
  br i1 %.not.i.i.i, label %graph_show_line_prefix.exit.i.i, label %39

39:                                               ; preds = %37
  %40 = getelementptr inbounds nuw i8, ptr %38, i64 88
  %41 = load ptr, ptr %40, align 8, !tbaa !31
  %.not5.i.i.i = icmp eq ptr %41, null
  br i1 %.not5.i.i.i, label %graph_show_line_prefix.exit.i.i, label %42

42:                                               ; preds = %39
  %43 = getelementptr inbounds nuw i8, ptr %38, i64 440
  %44 = load ptr, ptr %43, align 8, !tbaa !140
  %45 = call i32 @fputs(ptr noundef nonnull %41, ptr noundef %44)
  br label %graph_show_line_prefix.exit.i.i

graph_show_line_prefix.exit.i.i:                  ; preds = %42, %39, %37
  %46 = call i32 @graph_next_line(ptr noundef nonnull %0, ptr noundef nonnull %4)
  %47 = load ptr, ptr %7, align 8, !tbaa !29
  %48 = load i64, ptr %8, align 8, !tbaa !27
  %49 = load ptr, ptr %9, align 8, !tbaa !79
  %50 = getelementptr inbounds nuw i8, ptr %49, i64 1912
  %51 = load ptr, ptr %50, align 8, !tbaa !141
  %52 = call i64 @fwrite(ptr noundef %47, i64 noundef 1, i64 noundef %48, ptr noundef %51)
  call void @strbuf_release(ptr noundef nonnull %4) #15
  call void @llvm.lifetime.end.p0(i64 24, ptr nonnull %4) #15
  br label %.lr.ph.split.i

.lr.ph.split.i:                                   ; preds = %graph_show_line_prefix.exit.i.i, %.lr.ph
  %53 = call ptr @strchr(ptr noundef nonnull dereferenceable(1) %31, i32 noundef 10) #14
  %.not19.i = icmp eq ptr %53, null
  br i1 %.not19.i, label %._crit_edge.sink.split.i, label %.lr.ph, !llvm.loop !144

._crit_edge.sink.split.i:                         ; preds = %.lr.ph.split.i, %.lr.ph.split.us.i, %.lr.ph.split.i.preheader, %.lr.ph.split.us.i.preheader
  %.01727.lcssa.sink37.i = phi ptr [ %6, %.lr.ph.split.us.i.preheader ], [ %6, %.lr.ph.split.i.preheader ], [ %14, %.lr.ph.split.us.i ], [ %31, %.lr.ph.split.i ]
  %54 = load ptr, ptr %5, align 8, !tbaa !29
  %55 = load i64, ptr %10, align 8, !tbaa !27
  %56 = getelementptr inbounds nuw i8, ptr %54, i64 %55
  %57 = ptrtoint ptr %56 to i64
  %58 = ptrtoint ptr %.01727.lcssa.sink37.i to i64
  %59 = sub i64 %57, %58
  %60 = call i64 @fwrite(ptr noundef nonnull %.01727.lcssa.sink37.i, i64 noundef 1, i64 noundef %59, ptr noundef %1)
  br label %graph_show_strbuf.exit

graph_show_strbuf.exit:                           ; preds = %3, %._crit_edge.sink.split.i
  %.not = icmp eq ptr %0, null
  br i1 %.not, label %77, label %61

61:                                               ; preds = %graph_show_strbuf.exit
  %62 = getelementptr inbounds nuw i8, ptr %2, i64 8
  %63 = load i64, ptr %62, align 8, !tbaa !27
  %.not13 = icmp eq i64 %63, 0
  %64 = getelementptr inbounds nuw i8, ptr %0, i64 28
  %65 = load i32, ptr %64, align 4, !tbaa !121
  %.not18 = icmp eq i32 %65, 0
  br i1 %.not13, label %.thread, label %66

66:                                               ; preds = %61
  br i1 %.not18, label %77, label %67

.thread:                                          ; preds = %61
  br i1 %.not18, label %77, label %.thread16

67:                                               ; preds = %66
  %68 = load ptr, ptr %5, align 8, !tbaa !29
  %69 = getelementptr i8, ptr %68, i64 %63
  %70 = getelementptr i8, ptr %69, i64 -1
  %71 = load i8, ptr %70, align 1, !tbaa !30
  %72 = icmp eq i8 %71, 10
  br i1 %72, label %.critedge, label %.thread16

.thread16:                                        ; preds = %.thread, %67
  %73 = call i32 @putc(i32 noundef 10, ptr noundef %1)
  %74 = call i32 @graph_show_remainder(ptr noundef nonnull %0)
  br label %77

.critedge:                                        ; preds = %67
  %75 = call i32 @graph_show_remainder(ptr noundef nonnull %0)
  %76 = call i32 @putc(i32 noundef 10, ptr noundef %1)
  br label %77

77:                                               ; preds = %.thread, %.thread16, %66, %.critedge, %graph_show_strbuf.exit
  ret void
}